target datalayout = "e-m:e-p270:32:32-p271:32:32-p272:64:64-i64:64-i128:128-f80:128-n8:16:32:64-S128"
target triple = "x86_64-pc-linux-gnu"

%union.pthread_attr_t = type { i64, [48 x i8] }

@.str.23 = private unnamed_addr constant [22 x i8] c"pthread_attr_init: %m\00", align 1
@.str.24 = private unnamed_addr constant [26 x i8] c"pthread_attr_setscope: %m\00", align 1
@.str.25 = private unnamed_addr constant [30 x i8] c"pthread_attr_setstacksize: %m\00", align 1
@.str.26 = private unnamed_addr constant [35 x i8] c"%s: pthread_attr_setdetachstate %m\00", align 1
@__func__._agent_queue_request = private unnamed_addr constant [21 x i8] c"_agent_queue_request\00", align 1
@.str.27 = private unnamed_addr constant [28 x i8] c"%s: pthread_create error %m\00", align 1
@.str.28 = private unnamed_addr constant [55 x i8] c"pthread_attr_destroy failed, possible memory leak!: %m\00", align 1

; Function Attrs: nounwind uwtable
define internal void @_agent_queue_request(ptr noundef %0) #0 {
  %2 = alloca ptr, align 8
  %3 = alloca i64, align 8
  %4 = alloca %union.pthread_attr_t, align 8
  %5 = alloca i32, align 4
  %6 = alloca i32, align 4
  %7 = alloca i32, align 4
  store ptr %0, ptr %2, align 8
  br label %8

8:                                                ; preds = %1
  call void @llvm.lifetime.start.p0(i64 8, ptr %3) #9
  call void @llvm.lifetime.start.p0(i64 56, ptr %4) #9
  call void @llvm.lifetime.start.p0(i64 4, ptr %5) #9
  br label %9

9:                                                ; preds = %8
  call void @llvm.lifetime.start.p0(i64 4, ptr %6) #9
  %10 = call i32 @pthread_attr_init(ptr noundef %4) #9
  store i32 %10, ptr %6, align 4
  %11 = load i32, ptr %6, align 4
  %12 = icmp ne i32 %11, 0
  br i1 %12, label %13, label %16

13:                                               ; preds = %9
  %14 = load i32, ptr %6, align 4
  %15 = call ptr @__errno_location() #10
  store i32 %14, ptr %15, align 4
  call void (ptr, ...) @fatal(ptr noundef @.str.23) #11
  unreachable

16:                                               ; preds = %9
  %17 = call i32 @pthread_attr_setscope(ptr noundef %4, i32 noundef 0) #9
  store i32 %17, ptr %6, align 4
  %18 = load i32, ptr %6, align 4
  %19 = icmp ne i32 %18, 0
  br i1 %19, label %20, label %24

20:                                               ; preds = %16
  %21 = load i32, ptr %6, align 4
  %22 = call ptr @__errno_location() #10
  store i32 %21, ptr %22, align 4
  %23 = call i32 (ptr, ...) @error(ptr noundef @.str.24)
  br label %24

24:                                               ; preds = %20, %16
  %25 = call i32 @pthread_attr_setstacksize(ptr noundef %4, i64 noundef 1048576) #9
  store i32 %25, ptr %6, align 4
  %26 = load i32, ptr %6, align 4
  %27 = icmp ne i32 %26, 0
  br i1 %27, label %28, label %32

28:                                               ; preds = %24
  %29 = load i32, ptr %6, align 4
  %30 = call ptr @__errno_location() #10
  store i32 %29, ptr %30, align 4
  %31 = call i32 (ptr, ...) @error(ptr noundef @.str.25)
  br label %32

32:                                               ; preds = %28, %24
  call void @llvm.lifetime.end.p0(i64 4, ptr %6) #9
  br label %33

33:                                               ; preds = %32
  br label %34

34:                                               ; preds = %33
  %35 = call i32 @pthread_attr_setdetachstate(ptr noundef %4, i32 noundef 1) #9
  store i32 %35, ptr %5, align 4
  %36 = load i32, ptr %5, align 4
  %37 = icmp ne i32 %36, 0
  br i1 %37, label %38, label %41

38:                                               ; preds = %34
  %39 = load i32, ptr %5, align 4
  %40 = call ptr @__errno_location() #10
  store i32 %39, ptr %40, align 4
  call void (ptr, ...) @fatal(ptr noundef @.str.26, ptr noundef @__func__._agent_queue_request) #11
  unreachable

41:                                               ; preds = %34
  %42 = load ptr, ptr %2, align 8
  %43 = call i32 @pthread_create(ptr noundef %3, ptr noundef %4, ptr noundef @_rpc_thread, ptr noundef %42) #9
  store i32 %43, ptr %5, align 4
  %44 = load i32, ptr %5, align 4
  %45 = icmp ne i32 %44, 0
  br i1 %45, label %46, label %49

46:                                               ; preds = %41
  %47 = load i32, ptr %5, align 4
  %48 = call ptr @__errno_location() #10
  store i32 %47, ptr %48, align 4
  call void (ptr, ...) @fatal(ptr noundef @.str.27, ptr noundef @__func__._agent_queue_request) #11
  unreachable

49:                                               ; preds = %41
  br label %50

50:                                               ; preds = %49
  call void @llvm.lifetime.start.p0(i64 4, ptr %7) #9
  %51 = call i32 @pthread_attr_destroy(ptr noundef %4) #9
  store i32 %51, ptr %7, align 4
  %52 = load i32, ptr %7, align 4
  %53 = icmp ne i32 %52, 0
  br i1 %53, label %54, label %58

54:                                               ; preds = %50
  %55 = load i32, ptr %7, align 4
  %56 = call ptr @__errno_location() #10
  store i32 %55, ptr %56, align 4
  %57 = call i32 (ptr, ...) @error(ptr noundef @.str.28)
  br label %58

58:                                               ; preds = %54, %50
  call void @llvm.lifetime.end.p0(i64 4, ptr %7) #9
  br label %59

59:                                               ; preds = %58
  br label %60

60:                                               ; preds = %59
  call void @llvm.lifetime.end.p0(i64 4, ptr %5) #9
  call void @llvm.lifetime.end.p0(i64 56, ptr %4) #9
  call void @llvm.lifetime.end.p0(i64 8, ptr %3) #9
  br label %61

61:                                               ; preds = %60
  ret void
}