; Function Attrs: nounwind uwtable
define internal void @_agent_queue_request(ptr noundef %0) #1 {
  %2 = alloca i64, align 8
  %3 = alloca %union.pthread_attr_t, align 8
  call void @llvm.lifetime.start.p0(i64 8, ptr nonnull %2) #15
  call void @llvm.lifetime.start.p0(i64 56, ptr nonnull %3) #15
  %4 = call i32 @pthread_attr_init(ptr noundef nonnull %3) #15
  %.not = icmp eq i32 %4, 0
  br i1 %.not, label %7, label %5

5:                                                ; preds = %1
  %6 = tail call ptr @__errno_location() #16
  store i32 %4, ptr %6, align 4
  call void (ptr, ...) @fatal(ptr noundef nonnull @.str.23) #17
  unreachable

7:                                                ; preds = %1
  %8 = call i32 @pthread_attr_setscope(ptr noundef nonnull %3, i32 noundef 0) #15
  %.not17 = icmp eq i32 %8, 0
  br i1 %.not17, label %12, label %9

9:                                                ; preds = %7
  %10 = tail call ptr @__errno_location() #16
  store i32 %8, ptr %10, align 4
  %11 = call i32 (ptr, ...) @error(ptr noundef nonnull @.str.24) #15
  br label %12

12:                                               ; preds = %9, %7
  %13 = call i32 @pthread_attr_setstacksize(ptr noundef nonnull %3, i64 noundef 1048576) #15
  %.not18 = icmp eq i32 %13, 0
  br i1 %.not18, label %17, label %14

14:                                               ; preds = %12
  %15 = tail call ptr @__errno_location() #16
  store i32 %13, ptr %15, align 4
  %16 = call i32 (ptr, ...) @error(ptr noundef nonnull @.str.25) #15
  br label %17

17:                                               ; preds = %14, %12
  %18 = call i32 @pthread_attr_setdetachstate(ptr noundef nonnull %3, i32 noundef 1) #15
  %.not19 = icmp eq i32 %18, 0
  br i1 %.not19, label %21, label %19

19:                                               ; preds = %17
  %20 = tail call ptr @__errno_location() #16
  store i32 %18, ptr %20, align 4
  call void (ptr, ...) @fatal(ptr noundef nonnull @.str.26, ptr noundef nonnull @__func__._agent_queue_request) #17
  unreachable

21:                                               ; preds = %17
  %22 = call i32 @pthread_create(ptr noundef nonnull %2, ptr noundef nonnull %3, ptr noundef nonnull @_rpc_thread, ptr noundef %0) #15
  %.not20 = icmp eq i32 %22, 0
  br i1 %.not20, label %25, label %23

23:                                               ; preds = %21
  %24 = tail call ptr @__errno_location() #16
  store i32 %22, ptr %24, align 4
  call void (ptr, ...) @fatal(ptr noundef nonnull @.str.27, ptr noundef nonnull @__func__._agent_queue_request) #17
  unreachable

25:                                               ; preds = %21
  %26 = call i32 @pthread_attr_destroy(ptr noundef nonnull %3) #15
  %.not21 = icmp eq i32 %26, 0
  br i1 %.not21, label %30, label %27

27:                                               ; preds = %25
  %28 = tail call ptr @__errno_location() #16
  store i32 %26, ptr %28, align 4
  %29 = call i32 (ptr, ...) @error(ptr noundef nonnull @.str.28) #15
  br label %30

30:                                               ; preds = %27, %25
  call void @llvm.lifetime.end.p0(i64 56, ptr nonnull %3) #15
  call void @llvm.lifetime.end.p0(i64 8, ptr nonnull %2) #15
  ret void
}